target datalayout = "e-m:e-p270:32:32-p271:32:32-p272:64:64-i64:64-i128:128-f80:128-n8:16:32:64-S128"
target triple = "x86_64-pc-linux-gnu"

%struct._longobject = type { %struct._object, %struct._PyLongValue }
%struct._object = type { %union.anon.62, ptr }
%union.anon.62 = type { i64 }
%struct._PyLongValue = type { i64, [1 x i32] }
%struct.PyVarObject = type { %struct._object, i64 }
%struct._typeobject = type { %struct.PyVarObject, ptr, i64, i64, ptr, i64, ptr, ptr, ptr, ptr, ptr, ptr, ptr, ptr, ptr, ptr, ptr, ptr, ptr, i64, ptr, ptr, ptr, ptr, i64, ptr, ptr, ptr, ptr, ptr, ptr, ptr, ptr, ptr, i64, ptr, ptr, ptr, ptr, ptr, ptr, ptr, ptr, ptr, ptr, ptr, i32, ptr, ptr, i8, i16 }

@_Py_NoneStruct = external global %struct._object, align 8

; Function Attrs: inlinehint nounwind uwtable
define internal zeroext i1 @_PyLong_IsPositive(ptr noundef %0) #2 {
  %2 = alloca ptr, align 8
  store ptr %0, ptr %2, align 8, !tbaa !194
  %3 = load ptr, ptr %2, align 8, !tbaa !194
  %4 = getelementptr inbounds nuw %struct._longobject, ptr %3, i32 0, i32 1
  %5 = getelementptr inbounds nuw %struct._PyLongValue, ptr %4, i32 0, i32 0
  %6 = load i64, ptr %5, align 8, !tbaa !196
  %7 = and i64 %6, 3
  %8 = icmp eq i64 %7, 0
  ret i1 %8
}

; Function Attrs: inlinehint nounwind uwtable
define internal zeroext i1 @_PyLong_IsZero(ptr noundef %0) #2 {
  %2 = alloca ptr, align 8
  store ptr %0, ptr %2, align 8, !tbaa !194
  %3 = load ptr, ptr %2, align 8, !tbaa !194
  %4 = getelementptr inbounds nuw %struct._longobject, ptr %3, i32 0, i32 1
  %5 = getelementptr inbounds nuw %struct._PyLongValue, ptr %4, i32 0, i32 0
  %6 = load i64, ptr %5, align 8, !tbaa !196
  %7 = and i64 %6, 3
  %8 = icmp eq i64 %7, 1
  ret i1 %8
}

; Function Attrs: inlinehint nounwind uwtable
define internal i32 @PyType_HasFeature(ptr noundef %0, i64 noundef %1) #2 {
  %3 = alloca ptr, align 8
  %4 = alloca i64, align 8
  %5 = alloca i64, align 8
  store ptr %0, ptr %3, align 8, !tbaa !166
  store i64 %1, ptr %4, align 8, !tbaa !36
  call void @llvm.lifetime.start.p0(i64 8, ptr %5) #8
  %6 = load ptr, ptr %3, align 8, !tbaa !166
  %7 = getelementptr inbounds nuw %struct._typeobject, ptr %6, i32 0, i32 19
  %8 = load i64, ptr %7, align 8, !tbaa !168
  store i64 %8, ptr %5, align 8, !tbaa !36
  %9 = load i64, ptr %5, align 8, !tbaa !36
  %10 = load i64, ptr %4, align 8, !tbaa !36
  %11 = and i64 %9, %10
  %12 = icmp ne i64 %11, 0
  %13 = zext i1 %12 to i32
  call void @llvm.lifetime.end.p0(i64 8, ptr %5) #8
  ret i32 %13
}

; Function Attrs: inlinehint nounwind uwtable
define internal ptr @_Py_TYPE(ptr noundef %0) #2 {
  %2 = alloca ptr, align 8
  store ptr %0, ptr %2, align 8, !tbaa !31
  %3 = load ptr, ptr %2, align 8, !tbaa !31
  %4 = getelementptr inbounds nuw %struct._object, ptr %3, i32 0, i32 1
  %5 = load ptr, ptr %4, align 8, !tbaa !177
  ret ptr %5
}

; Function Attrs: nounwind uwtable
define internal ptr @safe_power(ptr noundef %0, ptr noundef %1) #0 {
  %3 = alloca ptr, align 8
  %4 = alloca ptr, align 8
  %5 = alloca ptr, align 8
  %6 = alloca i64, align 8
  %7 = alloca i64, align 8
  %8 = alloca i32, align 4
  store ptr %0, ptr %4, align 8, !tbaa !31
  store ptr %1, ptr %5, align 8, !tbaa !31
  %9 = load ptr, ptr %4, align 8, !tbaa !31
  %10 = call ptr @_Py_TYPE(ptr noundef %9)
  %11 = call i32 @PyType_HasFeature(ptr noundef %10, i64 noundef 16777216)
  %12 = icmp ne i32 %11, 0
  br i1 %12, label %13, label %42

13:                                               ; preds = %2
  %14 = load ptr, ptr %5, align 8, !tbaa !31
  %15 = call ptr @_Py_TYPE(ptr noundef %14)
  %16 = call i32 @PyType_HasFeature(ptr noundef %15, i64 noundef 16777216)
  %17 = icmp ne i32 %16, 0
  br i1 %17, label %18, label %42

18:                                               ; preds = %13
  %19 = load ptr, ptr %4, align 8, !tbaa !31
  %20 = call zeroext i1 @_PyLong_IsZero(ptr noundef %19)
  br i1 %20, label %42, label %21

21:                                               ; preds = %18
  %22 = load ptr, ptr %5, align 8, !tbaa !31
  %23 = call zeroext i1 @_PyLong_IsPositive(ptr noundef %22)
  br i1 %23, label %24, label %42

24:                                               ; preds = %21
  call void @llvm.lifetime.start.p0(i64 8, ptr %6) #8
  %25 = load ptr, ptr %4, align 8, !tbaa !31
  %26 = call i64 @_PyLong_NumBits(ptr noundef %25)
  store i64 %26, ptr %6, align 8, !tbaa !36
  call void @llvm.lifetime.start.p0(i64 8, ptr %7) #8
  %27 = load ptr, ptr %5, align 8, !tbaa !31
  %28 = call i64 @PyLong_AsSize_t(ptr noundef %27)
  store i64 %28, ptr %7, align 8, !tbaa !36
  %29 = load i64, ptr %7, align 8, !tbaa !36
  %30 = icmp eq i64 %29, -1
  br i1 %30, label %31, label %32

31:                                               ; preds = %24
  store ptr null, ptr %3, align 8
  store i32 1, ptr %8, align 4
  br label %39

32:                                               ; preds = %24
  %33 = load i64, ptr %6, align 8, !tbaa !36
  %34 = load i64, ptr %7, align 8, !tbaa !36
  %35 = udiv i64 128, %34
  %36 = icmp ugt i64 %33, %35
  br i1 %36, label %37, label %38

37:                                               ; preds = %32
  store ptr null, ptr %3, align 8
  store i32 1, ptr %8, align 4
  br label %39

38:                                               ; preds = %32
  store i32 0, ptr %8, align 4
  br label %39

39:                                               ; preds = %38, %37, %31
  call void @llvm.lifetime.end.p0(i64 8, ptr %7) #8
  call void @llvm.lifetime.end.p0(i64 8, ptr %6) #8
  %40 = load i32, ptr %8, align 4
  switch i32 %40, label %48 [
    i32 0, label %41
    i32 1, label %46
  ]

41:                                               ; preds = %39
  br label %42

42:                                               ; preds = %41, %21, %18, %13, %2
  %43 = load ptr, ptr %4, align 8, !tbaa !31
  %44 = load ptr, ptr %5, align 8, !tbaa !31
  %45 = call ptr @PyNumber_Power(ptr noundef %43, ptr noundef %44, ptr noundef @_Py_NoneStruct)
  store ptr %45, ptr %3, align 8
  br label %46

46:                                               ; preds = %42, %39
  %47 = load ptr, ptr %3, align 8
  ret ptr %47

48:                                               ; preds = %39
  unreachable
}