; Function Attrs: nounwind uwtable
define internal fastcc ptr @safe_power(ptr noundef %0, ptr noundef %1) unnamed_addr #0 {
  %3 = getelementptr i8, ptr %0, i64 8
  %.val15 = load ptr, ptr %3, align 8, !tbaa !154
  %4 = getelementptr i8, ptr %.val15, i64 168
  %.val17 = load i64, ptr %4, align 8, !tbaa !157
  %5 = and i64 %.val17, 16777216
  %.not = icmp eq i64 %5, 0
  br i1 %.not, label %24, label %6

6:                                                ; preds = %2
  %7 = getelementptr i8, ptr %1, i64 8
  %.val = load ptr, ptr %7, align 8, !tbaa !154
  %8 = getelementptr i8, ptr %.val, i64 168
  %.val16 = load i64, ptr %8, align 8, !tbaa !157
  %9 = and i64 %.val16, 16777216
  %.not14 = icmp eq i64 %9, 0
  br i1 %.not14, label %24, label %10

10:                                               ; preds = %6
  %11 = getelementptr i8, ptr %0, i64 16
  %.val18 = load i64, ptr %11, align 8, !tbaa !178
  %12 = and i64 %.val18, 3
  %13 = icmp eq i64 %12, 1
  br i1 %13, label %24, label %14

14:                                               ; preds = %10
  %15 = getelementptr i8, ptr %1, i64 16
  %.val19 = load i64, ptr %15, align 8, !tbaa !178
  %16 = and i64 %.val19, 3
  %17 = icmp eq i64 %16, 0
  br i1 %17, label %18, label %24

18:                                               ; preds = %14
  %19 = tail call i64 @_PyLong_NumBits(ptr noundef nonnull %0) #8
  %20 = tail call i64 @PyLong_AsSize_t(ptr noundef nonnull %1) #8
  %21 = icmp eq i64 %20, -1
  br i1 %21, label %.thread, label %22

22:                                               ; preds = %18
  %23 = udiv i64 128, %20
  %.not22 = icmp ugt i64 %19, %23
  br i1 %.not22, label %.thread, label %24

24:                                               ; preds = %22, %14, %10, %6, %2
  %25 = tail call ptr @PyNumber_Power(ptr noundef nonnull %0, ptr noundef %1, ptr noundef nonnull @_Py_NoneStruct) #8
  br label %.thread

.thread:                                          ; preds = %18, %22, %24
  %.1 = phi ptr [ %25, %24 ], [ null, %22 ], [ null, %18 ]
  ret ptr %.1
}